target datalayout = "e-m:e-p270:32:32-p271:32:32-p272:64:64-i64:64-i128:128-f80:128-n8:16:32:64-S128"
target triple = "x86_64-pc-linux-gnu"

%struct.Exstate_s = type { ptr, i32, i32, %struct.Exinput_s, ptr, ptr, ptr, i32, i32, i32, ptr, [1 x i8] }
%struct.Exinput_s = type { ptr, i32, ptr, ptr, i32, i32, i32, i32, ptr, ptr }
%union.EX_STYPE = type { ptr }
%struct.Exnode_s = type { i32, i32, i32, ptr, %union.anon.1, %union.Exdata_u, i32 }
%union.anon.1 = type { ptr }
%union.Exdata_u = type { %struct.anon.5 }
%struct.anon.5 = type { ptr, ptr, ptr, ptr }
%struct.Expr_s = type { ptr, ptr, [10 x ptr], ptr, ptr, ptr, %struct._dtdisc_s, ptr, ptr, ptr, %struct.agxbuf, %union.EX_STYPE, %struct.Exid_s, [512 x i8], ptr, i32, i32, i32, i32, i64, i32, i32 }
%struct._dtdisc_s = type { i32, i32, i32, ptr, ptr, ptr }
%struct.agxbuf = type { %union.anon }
%union.anon = type { %struct.anon }
%struct.anon = type { ptr, i64, i64, [7 x i8], i8 }
%struct.Exid_s = type { %struct._dtlink_s, i64, i64, i64, i64, i64, ptr, ptr, i64, [32 x i8] }
%struct._dtlink_s = type { ptr, %union.anon.0 }
%union.anon.0 = type { ptr }
%struct.anon.3 = type { ptr, ptr, ptr }
%struct.Exref_s = type { ptr, ptr, ptr }
%struct.Exdisc_s = type { i64, i64, ptr, ptr, ptr, ptr, ptr, ptr, ptr, ptr, ptr, ptr, ptr, ptr, ptr, ptr, ptr, ptr, ptr }

@expr = global %struct.Exstate_s zeroinitializer, align 8
@.str.40 = private unnamed_addr constant [40 x i8] c"%s: identifier references not supported\00", align 1

; Function Attrs: nounwind uwtable
define ptr @exnewnode(ptr noundef %0, i32 noundef %1, i32 noundef %2, i32 noundef %3, ptr noundef %4, ptr noundef %5) #0 {
  %7 = alloca ptr, align 8
  %8 = alloca i32, align 4
  %9 = alloca i32, align 4
  %10 = alloca i32, align 4
  %11 = alloca ptr, align 8
  %12 = alloca ptr, align 8
  %13 = alloca ptr, align 8
  %14 = alloca %struct.Exnode_s, align 8
  store ptr %0, ptr %7, align 8
  store i32 %1, ptr %8, align 4
  store i32 %2, ptr %9, align 4
  store i32 %3, ptr %10, align 4
  store ptr %4, ptr %11, align 8
  store ptr %5, ptr %12, align 8
  %15 = load ptr, ptr %7, align 8
  %16 = getelementptr inbounds %struct.Expr_s, ptr %15, i32 0, i32 3
  %17 = load ptr, ptr %16, align 8
  %18 = call ptr @vmalloc(ptr noundef %17, i64 noundef 72)
  store ptr %18, ptr %13, align 8
  %19 = load ptr, ptr %13, align 8
  call void @llvm.memset.p0.i64(ptr align 8 %14, i8 0, i64 72, i1 false)
  call void @llvm.memcpy.p0.p0.i64(ptr align 8 %19, ptr align 8 %14, i64 72, i1 false)
  %20 = load i32, ptr %8, align 4
  %21 = load ptr, ptr %13, align 8
  %22 = getelementptr inbounds %struct.Exnode_s, ptr %21, i32 0, i32 1
  store i32 %20, ptr %22, align 4
  %23 = load i32, ptr %10, align 4
  %24 = load ptr, ptr %13, align 8
  %25 = getelementptr inbounds %struct.Exnode_s, ptr %24, i32 0, i32 0
  store i32 %23, ptr %25, align 8
  %26 = load i32, ptr %9, align 4
  %27 = load ptr, ptr %13, align 8
  %28 = getelementptr inbounds %struct.Exnode_s, ptr %27, i32 0, i32 2
  store i32 %26, ptr %28, align 8
  %29 = load ptr, ptr %13, align 8
  %30 = getelementptr inbounds %struct.Exnode_s, ptr %29, i32 0, i32 3
  store ptr null, ptr %30, align 8
  %31 = load ptr, ptr %11, align 8
  %32 = load ptr, ptr %13, align 8
  %33 = getelementptr inbounds %struct.Exnode_s, ptr %32, i32 0, i32 5
  %34 = getelementptr inbounds %struct.anon.3, ptr %33, i32 0, i32 0
  store ptr %31, ptr %34, align 8
  %35 = load ptr, ptr %12, align 8
  %36 = load ptr, ptr %13, align 8
  %37 = getelementptr inbounds %struct.Exnode_s, ptr %36, i32 0, i32 5
  %38 = getelementptr inbounds %struct.anon.3, ptr %37, i32 0, i32 1
  store ptr %35, ptr %38, align 8
  %39 = load ptr, ptr %13, align 8
  ret ptr %39
}

; Function Attrs: nounwind uwtable
define internal ptr @makeVar(ptr noundef %0, ptr noundef %1, ptr noundef %2, ptr noundef %3, ptr noundef %4) #0 {
  %6 = alloca ptr, align 8
  %7 = alloca ptr, align 8
  %8 = alloca ptr, align 8
  %9 = alloca ptr, align 8
  %10 = alloca ptr, align 8
  %11 = alloca ptr, align 8
  %12 = alloca i32, align 4
  %13 = alloca ptr, align 8
  %14 = alloca %union.EX_STYPE, align 8
  store ptr %0, ptr %6, align 8
  store ptr %1, ptr %7, align 8
  store ptr %2, ptr %8, align 8
  store ptr %3, ptr %9, align 8
  store ptr %4, ptr %10, align 8
  %15 = load ptr, ptr %10, align 8
  %16 = icmp ne ptr %15, null
  br i1 %16, label %17, label %46

17:                                               ; preds = %5
  %18 = load ptr, ptr %10, align 8
  %19 = getelementptr inbounds %struct.Exref_s, ptr %18, i32 0, i32 0
  %20 = load ptr, ptr %19, align 8
  %21 = icmp ne ptr %20, null
  br i1 %21, label %22, label %35

22:                                               ; preds = %17
  %23 = load ptr, ptr %10, align 8
  %24 = getelementptr inbounds %struct.Exref_s, ptr %23, i32 0, i32 0
  %25 = load ptr, ptr %24, align 8
  %26 = getelementptr inbounds %struct.Exref_s, ptr %25, i32 0, i32 1
  %27 = load ptr, ptr %26, align 8
  store ptr %27, ptr %13, align 8
  %28 = load ptr, ptr %10, align 8
  %29 = getelementptr inbounds %struct.Exref_s, ptr %28, i32 0, i32 1
  %30 = load ptr, ptr %29, align 8
  %31 = load ptr, ptr %10, align 8
  %32 = getelementptr inbounds %struct.Exref_s, ptr %31, i32 0, i32 0
  %33 = load ptr, ptr %32, align 8
  %34 = getelementptr inbounds %struct.Exref_s, ptr %33, i32 0, i32 1
  store ptr %30, ptr %34, align 8
  br label %39

35:                                               ; preds = %17
  %36 = load ptr, ptr %10, align 8
  %37 = getelementptr inbounds %struct.Exref_s, ptr %36, i32 0, i32 1
  %38 = load ptr, ptr %37, align 8
  store ptr %38, ptr %13, align 8
  br label %39

39:                                               ; preds = %35, %22
  %40 = load ptr, ptr %7, align 8
  %41 = load ptr, ptr %10, align 8
  %42 = getelementptr inbounds %struct.Exref_s, ptr %41, i32 0, i32 1
  store ptr %40, ptr %42, align 8
  %43 = load ptr, ptr %8, align 8
  %44 = load ptr, ptr %10, align 8
  %45 = getelementptr inbounds %struct.Exref_s, ptr %44, i32 0, i32 2
  store ptr %43, ptr %45, align 8
  br label %48

46:                                               ; preds = %5
  %47 = load ptr, ptr %7, align 8
  store ptr %47, ptr %13, align 8
  br label %48

48:                                               ; preds = %46, %39
  %49 = load ptr, ptr %13, align 8
  %50 = getelementptr inbounds %struct.Exid_s, ptr %49, i32 0, i32 3
  %51 = load i64, ptr %50, align 8
  %52 = icmp ne i64 %51, 0
  br i1 %52, label %53, label %58

53:                                               ; preds = %48
  %54 = load ptr, ptr %13, align 8
  %55 = getelementptr inbounds %struct.Exid_s, ptr %54, i32 0, i32 3
  %56 = load i64, ptr %55, align 8
  %57 = trunc i64 %56 to i32
  store i32 %57, ptr %12, align 4
  br label %59

58:                                               ; preds = %48
  store i32 263, ptr %12, align 4
  br label %59

59:                                               ; preds = %58, %53
  %60 = load ptr, ptr %6, align 8
  %61 = load i32, ptr %12, align 4
  %62 = call ptr @exnewnode(ptr noundef %60, i32 noundef 283, i32 noundef 0, i32 noundef %61, ptr noundef null, ptr noundef null)
  store ptr %62, ptr %11, align 8
  %63 = load ptr, ptr %13, align 8
  %64 = load ptr, ptr %11, align 8
  %65 = getelementptr inbounds %struct.Exnode_s, ptr %64, i32 0, i32 5
  %66 = getelementptr inbounds %struct.anon.5, ptr %65, i32 0, i32 0
  store ptr %63, ptr %66, align 8
  %67 = load ptr, ptr %10, align 8
  %68 = load ptr, ptr %11, align 8
  %69 = getelementptr inbounds %struct.Exnode_s, ptr %68, i32 0, i32 5
  %70 = getelementptr inbounds %struct.anon.5, ptr %69, i32 0, i32 1
  store ptr %67, ptr %70, align 8
  %71 = load ptr, ptr %11, align 8
  %72 = getelementptr inbounds %struct.Exnode_s, ptr %71, i32 0, i32 5
  %73 = getelementptr inbounds %struct.anon.5, ptr %72, i32 0, i32 2
  store ptr null, ptr %73, align 8
  %74 = load ptr, ptr %9, align 8
  %75 = load ptr, ptr %11, align 8
  %76 = getelementptr inbounds %struct.Exnode_s, ptr %75, i32 0, i32 5
  %77 = getelementptr inbounds %struct.anon.5, ptr %76, i32 0, i32 3
  store ptr %74, ptr %77, align 8
  %78 = load ptr, ptr %6, align 8
  %79 = getelementptr inbounds %struct.Expr_s, ptr %78, i32 0, i32 7
  %80 = load ptr, ptr %79, align 8
  %81 = getelementptr inbounds %struct.Exdisc_s, ptr %80, i32 0, i32 13
  %82 = load ptr, ptr %81, align 8
  %83 = icmp ne ptr %82, null
  br i1 %83, label %88, label %84

84:                                               ; preds = %59
  %85 = load ptr, ptr %13, align 8
  %86 = getelementptr inbounds %struct.Exid_s, ptr %85, i32 0, i32 9
  %87 = getelementptr inbounds [32 x i8], ptr %86, i64 0, i64 0
  call void (ptr, ...) @exerror(ptr noundef @.str.40, ptr noundef %87)
  br label %113

88:                                               ; preds = %59
  %89 = getelementptr inbounds %struct.Exstate_s, ptr @expr, i32 0, i32 4
  %90 = load ptr, ptr %89, align 8
  %91 = getelementptr inbounds %struct.Expr_s, ptr %90, i32 0, i32 7
  %92 = load ptr, ptr %91, align 8
  %93 = getelementptr inbounds %struct.Exdisc_s, ptr %92, i32 0, i32 14
  %94 = load ptr, ptr %93, align 8
  %95 = icmp ne ptr %94, null
  br i1 %95, label %96, label %112

96:                                               ; preds = %88
  %97 = getelementptr inbounds %struct.Exstate_s, ptr @expr, i32 0, i32 4
  %98 = load ptr, ptr %97, align 8
  %99 = getelementptr inbounds %struct.Expr_s, ptr %98, i32 0, i32 7
  %100 = load ptr, ptr %99, align 8
  %101 = getelementptr inbounds %struct.Exdisc_s, ptr %100, i32 0, i32 14
  %102 = load ptr, ptr %101, align 8
  %103 = load ptr, ptr %6, align 8
  %104 = load ptr, ptr %11, align 8
  %105 = load ptr, ptr %11, align 8
  %106 = getelementptr inbounds %struct.Exnode_s, ptr %105, i32 0, i32 5
  %107 = getelementptr inbounds %struct.anon.5, ptr %106, i32 0, i32 0
  %108 = load ptr, ptr %107, align 8
  %109 = load ptr, ptr %10, align 8
  %110 = call ptr %102(ptr noundef %103, ptr noundef %104, ptr noundef %108, ptr noundef %109)
  %111 = getelementptr inbounds %union.EX_STYPE, ptr %14, i32 0, i32 0
  store ptr %110, ptr %111, align 8
  br label %112

112:                                              ; preds = %96, %88
  br label %113

113:                                              ; preds = %112, %84
  %114 = load ptr, ptr %11, align 8
  ret ptr %114
}