; Function Attrs: nounwind uwtable
define internal fastcc noundef ptr @makeVar(ptr noundef %0, ptr noundef %1, ptr noundef %2, ptr noundef %3, ptr noundef %4) unnamed_addr #0 {
  %.not = icmp eq ptr %4, null
  br i1 %.not, label %19, label %6

6:                                                ; preds = %5
  %7 = load ptr, ptr %4, align 8
  %.not33 = icmp eq ptr %7, null
  br i1 %.not33, label %13, label %8

8:                                                ; preds = %6
  %9 = getelementptr inbounds nuw i8, ptr %7, i64 8
  %10 = load ptr, ptr %9, align 8
  %11 = getelementptr inbounds nuw i8, ptr %4, i64 8
  %12 = load ptr, ptr %11, align 8
  store ptr %12, ptr %9, align 8
  br label %16

13:                                               ; preds = %6
  %14 = getelementptr inbounds nuw i8, ptr %4, i64 8
  %15 = load ptr, ptr %14, align 8
  br label %16

16:                                               ; preds = %13, %8
  %.028 = phi ptr [ %10, %8 ], [ %15, %13 ]
  %17 = getelementptr inbounds nuw i8, ptr %4, i64 8
  store ptr %1, ptr %17, align 8
  %18 = getelementptr inbounds nuw i8, ptr %4, i64 16
  store ptr %2, ptr %18, align 8
  br label %19

19:                                               ; preds = %5, %16
  %.1 = phi ptr [ %.028, %16 ], [ %1, %5 ]
  %20 = getelementptr inbounds nuw i8, ptr %.1, i64 32
  %21 = load i64, ptr %20, align 8
  %.not34 = icmp eq i64 %21, 0
  %22 = trunc i64 %21 to i32
  %.0 = select i1 %.not34, i32 263, i32 %22
  %23 = getelementptr inbounds nuw i8, ptr %0, i64 96
  %24 = load ptr, ptr %23, align 8
  %25 = tail call ptr @vmalloc(ptr noundef %24, i64 noundef 72) #22
  %26 = getelementptr inbounds nuw i8, ptr %25, i64 8
  tail call void @llvm.memset.p0.i64(ptr noundef nonnull align 8 dereferenceable(64) %26, i8 0, i64 64, i1 false)
  %27 = getelementptr inbounds nuw i8, ptr %25, i64 4
  store i32 283, ptr %27, align 4
  store i32 %.0, ptr %25, align 8
  %28 = getelementptr inbounds nuw i8, ptr %25, i64 32
  %29 = getelementptr inbounds nuw i8, ptr %25, i64 40
  store ptr %.1, ptr %28, align 8
  store ptr %4, ptr %29, align 8
  %30 = getelementptr inbounds nuw i8, ptr %25, i64 56
  store ptr %3, ptr %30, align 8
  %31 = getelementptr inbounds nuw i8, ptr %0, i64 160
  %32 = load ptr, ptr %31, align 8
  %33 = getelementptr inbounds nuw i8, ptr %32, i64 104
  %34 = load ptr, ptr %33, align 8
  %.not35 = icmp eq ptr %34, null
  br i1 %.not35, label %35, label %37

35:                                               ; preds = %19
  %36 = getelementptr inbounds nuw i8, ptr %.1, i64 80
  tail call void (ptr, ...) @exerror(ptr noundef nonnull @.str.40, ptr noundef nonnull %36) #22
  br label %45

37:                                               ; preds = %19
  %38 = load ptr, ptr getelementptr inbounds nuw (i8, ptr @expr, i64 80), align 8
  %39 = getelementptr inbounds nuw i8, ptr %38, i64 160
  %40 = load ptr, ptr %39, align 8
  %41 = getelementptr inbounds nuw i8, ptr %40, i64 112
  %42 = load ptr, ptr %41, align 8
  %.not36 = icmp eq ptr %42, null
  br i1 %.not36, label %45, label %43

43:                                               ; preds = %37
  %44 = tail call ptr %42(ptr noundef nonnull %0, ptr noundef nonnull %25, ptr noundef nonnull %.1, ptr noundef %4) #22
  br label %45

45:                                               ; preds = %37, %43, %35
  ret ptr %25
}